; Function Attrs: mustprogress nofree norecurse nosync nounwind willreturn memory(argmem: read) uwtable
define hidden zeroext i1 @SDL_SurfaceHasAlternateImages_REAL(ptr noundef readonly captures(address_is_null) %0) local_unnamed_addr #0 {
  %.not.i = icmp eq ptr %0, null
  br i1 %.not.i, label %SDL_SurfaceValid.exit.thread, label %SDL_SurfaceValid.exit

SDL_SurfaceValid.exit:                            ; preds = %1
  %2 = getelementptr inbounds nuw i8, ptr %0, i64 40
  %3 = load ptr, ptr %2, align 8
  %4 = icmp eq ptr %3, @SDL_surface_magic
  br i1 %4, label %5, label %SDL_SurfaceValid.exit.thread

5:                                                ; preds = %SDL_SurfaceValid.exit
  %6 = getelementptr inbounds nuw i8, ptr %0, i64 80
  %7 = load i32, ptr %6, align 8
  %8 = icmp sgt i32 %7, 0
  br label %SDL_SurfaceValid.exit.thread

SDL_SurfaceValid.exit.thread:                     ; preds = %1, %SDL_SurfaceValid.exit, %5
  %.0 = phi i1 [ %8, %5 ], [ false, %SDL_SurfaceValid.exit ], [ false, %1 ]
  ret i1 %.0
}